Certificate:
    Data:
        Version: 3 (0x2)
        Serial Number: 1 (0x1)
        Signature Algorithm: sha256WithRSAEncryption
        Issuer: C=UK, ST=Wales, L=Cardiff, O=Test CA, OU=Server Research Department, CN=Test CA/emailAddress=test@example.com
        Validity
            Not Before: Jan  8 19:13:05 2020 GMT
            Not After : Oct  4 19:13:05 2022 GMT
        Subject: C=UK, ST=Wales, L=Cardiff, O=Test Server, CN=Test Server
        Subject Public Key Info:
            Public Key Algorithm: rsaEncryption
                RSA Public-Key: (4096 bit)
                Modulus:
                    00:d8:09:9e:9f:b6:d4:a2:9a:11:c4:c5:0f:e0:7d:
                    69:2b:9b:b9:2e:9b:2c:dc:99:71:0f:fa:9f:16:f2:
                    10:a9:6f:93:14:ce:39:bb:44:9f:c9:27:d8:79:9a:
                    77:41:1f:9a:91:0a:2f:b0:98:ee:71:5d:e2:f3:42:
                    98:8f:21:0c:cc:e0:7b:c5:84:fd:4d:c8:83:23:ac:
                    65:4e:a0:b8:d2:d2:1e:db:80:8e:4f:8b:40:73:f1:
                    1b:90:fd:ee:3f:98:65:34:24:1d:e0:56:38:0a:87:
                    77:ca:da:b3:4f:dc:73:ce:11:9b:a3:c6:af:71:51:
                    f1:80:4e:06:0d:7d:06:10:84:54:7c:bd:62:0e:68:
                    4d:ce:93:0d:b2:d2:db:41:78:ef:f8:a4:f7:33:63:
                    5c:21:ad:c1:42:10:96:d3:50:ae:a6:06:16:69:f1:
                    9e:6f:0f:d0:c9:de:87:ef:3c:11:eb:4a:f2:41:4d:
                    04:d2:58:8b:6e:17:d6:78:c1:12:c8:25:87:b1:ea:
                    54:0a:b3:ef:7f:97:34:df:19:2d:d8:ea:4d:68:19:
                    0a:30:a6:52:82:e7:8f:f2:f1:2d:55:ba:63:c7:47:
                    92:a8:96:9e:b4:90:99:4b:22:c7:88:1b:04:f8:96:
                    81:f5:a4:59:cd:45:de:ae:9f:bd:2f:34:00:59:08:
                    b2:5d:28:3d:be:2a:5d:92:ac:51:b3:86:8f:88:12:
                    a0:d8:91:29:13:ed:85:d6:53:e3:e7:80:0d:1c:1a:
                    b8:62:b0:82:a2:3a:53:25:54:07:14:41:0a:ed:c9:
                    b6:7d:5e:55:fb:e3:5f:cc:d7:b4:f4:c0:92:4c:6c:
                    dd:b3:65:31:d9:55:d6:f3:9d:c4:f1:66:29:93:e8:
                    6e:30:29:de:0b:a3:a5:d9:1c:0e:01:38:7b:b9:52:
                    68:62:77:dc:56:11:2f:df:27:05:c0:29:9d:de:0c:
                    36:20:7b:bf:52:db:a7:7d:68:3d:85:46:4e:e6:75:
                    fe:03:f0:97:ee:01:31:c4:d1:9d:50:06:28:af:d1:
                    bf:d9:43:27:de:f8:c3:1b:da:14:6c:a7:b2:e4:34:
                    84:2d:cc:c4:86:b1:31:82:0e:22:44:ae:35:54:eb:
                    27:4b:a9:96:c7:21:25:25:94:b8:09:a1:59:fe:70:
                    80:50:3e:1a:0f:5b:9f:fb:a1:c4:df:ba:f7:9f:bd:
                    af:98:27:dd:56:a8:1b:b2:64:13:2d:7a:2e:11:5f:
                    9d:29:40:35:13:5f:7b:f1:b9:58:01:43:21:fe:b2:
                    b2:82:9c:ac:86:86:9d:24:87:09:3c:70:ff:9b:7e:
                    cd:b0:66:ec:59:ce:91:32:14:49:cb:d0:9b:af:f2:
                    0b:49:75
                Exponent: 65537 (0x10001)
        X509v3 extensions:
            X509v3 Subject Key Identifier: 
                AB:A2:B5:D7:A2:4D:A7:4F:11:9B:94:FB:93:D3:7B:72:ED:9A:D8:A8
            X509v3 Authority Key Identifier: 
                keyid:CC:55:E7:BF:6D:F9:61:7C:15:31:57:63:FA:4B:99:72:0C:87:2D:2E

            X509v3 Basic Constraints: 
                CA:FALSE
            X509v3 Key Usage: 
                Digital Signature, Key Encipherment
            X509v3 Subject Alternative Name: 
                DNS:localhost
            Netscape Comment: 
                OpenSSL Generated Certificate
    Signature Algorithm: sha256WithRSAEncryption
         d0:5c:43:60:1c:3e:a2:ac:39:65:b5:1c:97:e7:d0:75:bf:60:
         68:2f:98:4a:37:4f:85:da:c2:8b:80:e7:f4:cc:80:de:64:8b:
         33:91:39:83:54:0f:67:3d:02:49:84:ea:9a:86:1f:91:3f:eb:
         4c:1c:4e:79:95:b3:1b:54:f9:e2:d6:de:e6:4c:dc:bf:1a:c2:
         8e:60:df:98:03:06:d5:33:7a:a6:9d:63:a7:90:16:54:2b:ac:
         bb:bf:f0:a8:9a:30:d4:9c:e5:1a:3f:49:1c:2c:f4:e9:c5:33:
         2b:99:c3:5e:5b:8b:c7:d4:8e:d9:30:02:ce:12:26:ca:56:15:
         4f:2f:b3:65:d6:38:08:b4:c4:86:2e:47:43:d5:84:8f:02:84:
         d9:57:21:e7:ed:98:fd:45:8e:48:43:5c:02:68:e3:40:9d:12:
         a3:52:8a:4f:35:13:d6:9b:07:e4:a2:d2:b5:f5:c0:ce:06:73:
         73:13:ca:11:5b:f9:5b:7b:29:90:18:9e:ed:7d:e7:05:9d:93:
         ec:f7:f7:35:7c:52:ad:a5:fa:fe:2c:40:0d:29:ee:07:de:4b:
         99:19:a9:3d:17:da:ef:5e:07:9b:e4:05:53:b7:ae:cf:c1:75:
         31:01:ef:a5:4e:49:50:1a:be:b5:dc:80:cb:54:ea:4f:d2:2d:
         40:3e:a5:a8:75:d0:70:44:51:26:02:88:1f:aa:47:de:63:9d:
         f7:ba:5b:6d:62:20:24:f6:67:a3:2e:6d:0e:8d:59:e2:c2:de:
         57:dd:cf:a8:46:d0:e2:e6:a3:12:7a:b3:08:84:5f:cc:d0:db:
         18:b2:93:32:91:30:25:2f:0d:e0:6a:be:36:d2:2b:cc:43:f1:
         94:96:91:c7:fb:72:0c:5f:23:2d:e6:e6:bb:73:20:43:c6:c8:
         6b:6a:76:ce:d3:0d:7e:ad:4a:dc:6e:09:01:4e:8c:a4:33:a0:
         89:d3:80:24:2b:50:5f:d9:4b:30:58:2e:b9:ac:8f:12:bf:1b:
         f7:39:68:bc:f5:8e:8f:27:ae:59:2b:58:ca:a5:c6:7e:ea:86:
         4d:87:57:a4:e4:b0:9e:96:23:57:94:78:e4:a1:4b:b1:74:d4:
         a8:0f:5d:f2:4e:da:fb:95:55:15:16:ba:49:ae:f1:a4:71:9d:
         f1:1a:e9:07:6a:e3:d1:0d:4a:b2:75:c4:d4:f6:3d:10:12:6b:
         66:b4:ae:c4:1a:b8:62:5d:59:77:b3:01:1f:58:c1:12:27:ab:
         bc:8f:e6:91:35:c5:3d:81:30:ca:28:ac:f8:c1:33:3c:10:27:
         4f:aa:03:15:0d:86:d1:d5:80:3e:5e:ac:a4:4a:f4:86:45:32:
         9f:ec:f7:c3:0e:12:f5:d4
-----BEGIN CERTIFICATE-----
MIIGEDCCA/igAwIBAgIBATANBgkqhkiG9w0BAQsFADCBmTELMAkGA1UEBhMCVUsx
DjAMBgNVBAgMBVdhbGVzMRAwDgYDVQQHDAdDYXJkaWZmMRAwDgYDVQQKDAdUZXN0
IENBMSMwIQYDVQQLDBpTZXJ2ZXIgUmVzZWFyY2ggRGVwYXJ0bWVudDEQMA4GA1UE
AwwHVGVzdCBDQTEfMB0GCSqGSIb3DQEJARYQdGVzdEBleGFtcGxlLmNvbTAeFw0y
MDAxMDgxOTEzMDVaFw0yMjEwMDQxOTEzMDVaMFsxCzAJBgNVBAYTAlVLMQ4wDAYD
VQQIDAVXYWxlczEQMA4GA1UEBwwHQ2FyZGlmZjEUMBIGA1UECgwLVGVzdCBTZXJ2
ZXIxFDASBgNVBAMMC1Rlc3QgU2VydmVyMIICIjANBgkqhkiG9w0BAQEFAAOCAg8A
MIICCgKCAgEA2Amen7bUopoRxMUP4H1pK5u5Lpss3JlxD/qfFvIQqW+TFM45u0Sf
ySfYeZp3QR+akQovsJjucV3i80KYjyEMzOB7xYT9TciDI6xlTqC40tIe24COT4tA
c/EbkP3uP5hlNCQd4FY4Cod3ytqzT9xzzhGbo8avcVHxgE4GDX0GEIRUfL1iDmhN
zpMNstLbQXjv+KT3M2NcIa3BQhCW01CupgYWafGebw/Qyd6H7zwR60ryQU0E0liL
bhfWeMESyCWHsepUCrPvf5c03xkt2OpNaBkKMKZSgueP8vEtVbpjx0eSqJaetJCZ
SyLHiBsE+JaB9aRZzUXerp+9LzQAWQiyXSg9vipdkqxRs4aPiBKg2JEpE+2F1lPj
54ANHBq4YrCCojpTJVQHFEEK7cm2fV5V++NfzNe09MCSTGzds2Ux2VXW853E8WYp
k+huMCneC6Ol2RwOATh7uVJoYnfcVhEv3ycFwCmd3gw2IHu/UtunfWg9hUZO5nX+
A/CX7gExxNGdUAYor9G/2UMn3vjDG9oUbKey5DSELczEhrExgg4iRK41VOsnS6mW
xyElJZS4CaFZ/nCAUD4aD1uf+6HE37r3n72vmCfdVqgbsmQTLXouEV+dKUA1E197
8blYAUMh/rKygpyshoadJIcJPHD/m37NsGbsWc6RMhRJy9Cbr/ILSXUCAwEAAaOB
nzCBnDAdBgNVHQ4EFgQUq6K116JNp08Rm5T7k9N7cu2a2KgwHwYDVR0jBBgwFoAU
zFXnv235YXwVMVdj+kuZcgyHLS4wCQYDVR0TBAIwADALBgNVHQ8EBAMCBaAwFAYD
VR0RBA0wC4IJbG9jYWxob3N0MCwGCWCGSAGG+EIBDQQfFh1PcGVuU1NMIEdlbmVy
YXRlZCBDZXJ0aWZpY2F0ZTANBgkqhkiG9w0BAQsFAAOCAgEA0FxDYBw+oqw5ZbUc
l+fQdb9gaC+YSjdPhdrCi4Dn9MyA3mSLM5E5g1QPZz0CSYTqmoYfkT/rTBxOeZWz
G1T54tbe5kzcvxrCjmDfmAMG1TN6pp1jp5AWVCusu7/wqJow1JzlGj9JHCz06cUz
K5nDXluLx9SO2TACzhImylYVTy+zZdY4CLTEhi5HQ9WEjwKE2Vch5+2Y/UWOSENc
AmjjQJ0So1KKTzUT1psH5KLStfXAzgZzcxPKEVv5W3spkBie7X3nBZ2T7Pf3NXxS
raX6/ixADSnuB95LmRmpPRfa714Hm+QFU7euz8F1MQHvpU5JUBq+tdyAy1TqT9It
QD6lqHXQcERRJgKIH6pH3mOd97pbbWIgJPZnoy5tDo1Z4sLeV93PqEbQ4uajEnqz
CIRfzNDbGLKTMpEwJS8N4Gq+NtIrzEPxlJaRx/tyDF8jLebmu3MgQ8bIa2p2ztMN
fq1K3G4JAU6MpDOgidOAJCtQX9lLMFguuayPEr8b9zlovPWOjyeuWStYyqXGfuqG
TYdXpOSwnpYjV5R45KFLsXTUqA9d8k7a+5VVFRa6Sa7xpHGd8RrpB2rj0Q1KsnXE
1PY9EBJrZrSuxBq4Yl1Zd7MBH1jBEiervI/mkTXFPYEwyiis+MEzPBAnT6oDFQ2G
0dWAPl6spEr0hkUyn+z3ww4S9dQ=
-----END CERTIFICATE-----
